; Function Attrs: nounwind sspstrong uwtable
define dso_local zeroext i1 @virtio_queue_enabled(ptr noundef %vdev, i32 noundef %n) local_unnamed_addr #0 {
entry:
  %call.i = tail call ptr @object_dynamic_cast_assert(ptr noundef %vdev, ptr noundef nonnull @.str.96, ptr noundef nonnull @.str.97, i32 noundef 77, ptr noundef nonnull @__func__.DEVICE) #23
  %call1 = tail call ptr @qdev_get_parent_bus(ptr noundef %call.i) #23
  %call.i5 = tail call ptr @object_get_class(ptr noundef %call1) #23
  %call1.i = tail call ptr @object_class_dynamic_cast_assert(ptr noundef %call.i5, ptr noundef nonnull @.str.98, ptr noundef nonnull @.str.99, i32 noundef 36, ptr noundef nonnull @__func__.VIRTIO_BUS_GET_CLASS) #23
  %queue_enabled = getelementptr inbounds nuw i8, ptr %call1.i, i64 312
  %0 = load ptr, ptr %queue_enabled, align 8
  %tobool.not = icmp eq ptr %0, null
  br i1 %tobool.not, label %if.end, label %if.then

if.then:                                          ; preds = %entry
  %parent = getelementptr inbounds nuw i8, ptr %call1, i64 40
  %1 = load ptr, ptr %parent, align 8
  %call4 = tail call zeroext i1 %0(ptr noundef %1, i32 noundef %n) #23
  br label %return

if.end:                                           ; preds = %entry
  %vq.i.i = getelementptr inbounds nuw i8, ptr %vdev, i64 232
  %2 = load ptr, ptr %vq.i.i, align 8
  %idxprom.i.i = sext i32 %n to i64
  %desc.i.i = getelementptr %struct.VirtQueue, ptr %2, i64 %idxprom.i.i, i32 0, i32 3
  %3 = load i64, ptr %desc.i.i, align 8
  %cmp.i = icmp ne i64 %3, 0
  br label %return

return:                                           ; preds = %if.end, %if.then
  %retval.0 = phi i1 [ %call4, %if.then ], [ %cmp.i, %if.end ]
  ret i1 %retval.0
}